target datalayout = "e-m:e-p270:32:32-p271:32:32-p272:64:64-i64:64-i128:128-f80:128-n8:16:32:64-S128"
target triple = "x86_64-pc-linux-gnu"

%"class.sat::probing" = type { ptr, i32, %"class.sat::literal_set", %class.svector.2, i32, i8, i32, i8, i8, i64, i32, %class.vector.4, %class.svector.5, %"class.sat::big" }
%"class.sat::literal_set" = type { %class.tracked_uint_set }
%class.tracked_uint_set = type { %class.svector, %class.svector.0 }
%class.svector = type { %class.vector }
%class.vector = type { ptr }
%class.svector.0 = type { %class.vector.1 }
%class.vector.1 = type { ptr }
%class.svector.2 = type { %class.vector.3 }
%class.vector.3 = type { ptr }
%class.vector.4 = type { ptr }
%class.svector.5 = type { %class.vector.6 }
%class.vector.6 = type { ptr }
%"class.sat::big" = type { ptr, i32, %class.vector.7, %class.svector.8, %class.svector.10, %class.svector.10, %class.svector.2, %class.svector.2, i8, i8, %class.vector.7 }
%class.svector.8 = type { %class.vector.9 }
%class.vector.9 = type { ptr }
%class.svector.10 = type { %class.vector.11 }
%class.vector.11 = type { ptr }
%class.vector.7 = type { ptr }
%class.params_ref = type { ptr }
%struct.sat_simplifier_params = type { ptr, %class.params_ref }

@.str.13 = private unnamed_addr constant [4 x i8] c"sat\00", align 1
@.str.14 = private unnamed_addr constant [8 x i8] c"probing\00", align 1
@.str.15 = private unnamed_addr constant [14 x i8] c"probing_limit\00", align 1
@.str.16 = private unnamed_addr constant [14 x i8] c"probing_cache\00", align 1
@.str.17 = private unnamed_addr constant [15 x i8] c"probing_binary\00", align 1
@.str.18 = private unnamed_addr constant [20 x i8] c"probing_cache_limit\00", align 1

; Function Attrs: inlinehint mustprogress nounwind uwtable
define linkonce_odr hidden void @_ZN21sat_simplifier_paramsD2Ev(ptr noundef nonnull align 8 dereferenceable(16) %0) unnamed_addr #6 comdat align 2 {
  %2 = alloca ptr, align 8
  store ptr %0, ptr %2, align 8, !tbaa !243
  %3 = load ptr, ptr %2, align 8
  %4 = getelementptr inbounds nuw %struct.sat_simplifier_params, ptr %3, i32 0, i32 1
  call void @_ZN10params_refD1Ev(ptr noundef nonnull align 8 dereferenceable(8) %4) #3
  ret void
}

; Function Attrs: mustprogress uwtable
define linkonce_odr hidden noundef i32 @_ZNK21sat_simplifier_params19probing_cache_limitEv(ptr noundef nonnull align 8 dereferenceable(16) %0) #4 comdat align 2 {
  %2 = alloca ptr, align 8
  store ptr %0, ptr %2, align 8, !tbaa !243
  %3 = load ptr, ptr %2, align 8
  %4 = getelementptr inbounds nuw %struct.sat_simplifier_params, ptr %3, i32 0, i32 0
  %5 = load ptr, ptr %4, align 8, !tbaa !245
  %6 = getelementptr inbounds nuw %struct.sat_simplifier_params, ptr %3, i32 0, i32 1
  %7 = call noundef i32 @_ZNK10params_ref8get_uintEPKcRKS_j(ptr noundef nonnull align 8 dereferenceable(8) %5, ptr noundef @.str.18, ptr noundef nonnull align 8 dereferenceable(8) %6, i32 noundef 1024)
  ret i32 %7
}

; Function Attrs: mustprogress uwtable
define linkonce_odr hidden noundef zeroext i1 @_ZNK21sat_simplifier_params14probing_binaryEv(ptr noundef nonnull align 8 dereferenceable(16) %0) #4 comdat align 2 {
  %2 = alloca ptr, align 8
  store ptr %0, ptr %2, align 8, !tbaa !243
  %3 = load ptr, ptr %2, align 8
  %4 = getelementptr inbounds nuw %struct.sat_simplifier_params, ptr %3, i32 0, i32 0
  %5 = load ptr, ptr %4, align 8, !tbaa !245
  %6 = getelementptr inbounds nuw %struct.sat_simplifier_params, ptr %3, i32 0, i32 1
  %7 = call noundef zeroext i1 @_ZNK10params_ref8get_boolEPKcRKS_b(ptr noundef nonnull align 8 dereferenceable(8) %5, ptr noundef @.str.17, ptr noundef nonnull align 8 dereferenceable(8) %6, i1 noundef zeroext true)
  ret i1 %7
}

; Function Attrs: mustprogress uwtable
define linkonce_odr hidden noundef zeroext i1 @_ZNK21sat_simplifier_params13probing_cacheEv(ptr noundef nonnull align 8 dereferenceable(16) %0) #4 comdat align 2 {
  %2 = alloca ptr, align 8
  store ptr %0, ptr %2, align 8, !tbaa !243
  %3 = load ptr, ptr %2, align 8
  %4 = getelementptr inbounds nuw %struct.sat_simplifier_params, ptr %3, i32 0, i32 0
  %5 = load ptr, ptr %4, align 8, !tbaa !245
  %6 = getelementptr inbounds nuw %struct.sat_simplifier_params, ptr %3, i32 0, i32 1
  %7 = call noundef zeroext i1 @_ZNK10params_ref8get_boolEPKcRKS_b(ptr noundef nonnull align 8 dereferenceable(8) %5, ptr noundef @.str.16, ptr noundef nonnull align 8 dereferenceable(8) %6, i1 noundef zeroext true)
  ret i1 %7
}

; Function Attrs: mustprogress uwtable
define linkonce_odr hidden noundef i32 @_ZNK21sat_simplifier_params13probing_limitEv(ptr noundef nonnull align 8 dereferenceable(16) %0) #4 comdat align 2 {
  %2 = alloca ptr, align 8
  store ptr %0, ptr %2, align 8, !tbaa !243
  %3 = load ptr, ptr %2, align 8
  %4 = getelementptr inbounds nuw %struct.sat_simplifier_params, ptr %3, i32 0, i32 0
  %5 = load ptr, ptr %4, align 8, !tbaa !245
  %6 = getelementptr inbounds nuw %struct.sat_simplifier_params, ptr %3, i32 0, i32 1
  %7 = call noundef i32 @_ZNK10params_ref8get_uintEPKcRKS_j(ptr noundef nonnull align 8 dereferenceable(8) %5, ptr noundef @.str.15, ptr noundef nonnull align 8 dereferenceable(8) %6, i32 noundef 5000000)
  ret i32 %7
}

; Function Attrs: mustprogress uwtable
define linkonce_odr hidden noundef zeroext i1 @_ZNK21sat_simplifier_params7probingEv(ptr noundef nonnull align 8 dereferenceable(16) %0) #4 comdat align 2 {
  %2 = alloca ptr, align 8
  store ptr %0, ptr %2, align 8, !tbaa !243
  %3 = load ptr, ptr %2, align 8
  %4 = getelementptr inbounds nuw %struct.sat_simplifier_params, ptr %3, i32 0, i32 0
  %5 = load ptr, ptr %4, align 8, !tbaa !245
  %6 = getelementptr inbounds nuw %struct.sat_simplifier_params, ptr %3, i32 0, i32 1
  %7 = call noundef zeroext i1 @_ZNK10params_ref8get_boolEPKcRKS_b(ptr noundef nonnull align 8 dereferenceable(8) %5, ptr noundef @.str.14, ptr noundef nonnull align 8 dereferenceable(8) %6, i1 noundef zeroext true)
  ret i1 %7
}

; Function Attrs: mustprogress uwtable
define linkonce_odr hidden void @_ZN21sat_simplifier_paramsC2ERK10params_ref(ptr noundef nonnull align 8 dereferenceable(16) %0, ptr noundef nonnull align 8 dereferenceable(8) %1) unnamed_addr #4 comdat align 2 {
  %3 = alloca ptr, align 8
  %4 = alloca ptr, align 8
  store ptr %0, ptr %3, align 8, !tbaa !243
  store ptr %1, ptr %4, align 8, !tbaa !10
  %5 = load ptr, ptr %3, align 8
  %6 = getelementptr inbounds nuw %struct.sat_simplifier_params, ptr %5, i32 0, i32 0
  %7 = load ptr, ptr %4, align 8, !tbaa !10
  store ptr %7, ptr %6, align 8, !tbaa !10
  %8 = getelementptr inbounds nuw %struct.sat_simplifier_params, ptr %5, i32 0, i32 1
  call void @_ZN7gparams10get_moduleEPKc(ptr dead_on_unwind writable sret(%class.params_ref) align 8 %8, ptr noundef @.str.13)
  ret void
}

; Function Attrs: mustprogress uwtable
define hidden void @_ZN3sat7probing11updt_paramsERK10params_ref(ptr noundef nonnull align 8 dereferenceable(168) %0, ptr noundef nonnull align 8 dereferenceable(8) %1) #4 align 2 personality ptr @__gxx_personality_v0 {
  %3 = alloca ptr, align 8
  %4 = alloca ptr, align 8
  %5 = alloca %struct.sat_simplifier_params, align 8
  %6 = alloca ptr, align 8
  %7 = alloca i32, align 4
  store ptr %0, ptr %3, align 8, !tbaa !3
  store ptr %1, ptr %4, align 8, !tbaa !10
  %8 = load ptr, ptr %3, align 8
  call void @llvm.lifetime.start.p0(i64 16, ptr %5) #3
  %9 = load ptr, ptr %4, align 8, !tbaa !10
  call void @_ZN21sat_simplifier_paramsC2ERK10params_ref(ptr noundef nonnull align 8 dereferenceable(16) %5, ptr noundef nonnull align 8 dereferenceable(8) %9)
  %10 = invoke noundef zeroext i1 @_ZNK21sat_simplifier_params7probingEv(ptr noundef nonnull align 8 dereferenceable(16) %5)
          to label %11 unwind label %29

11:                                               ; preds = %2
  %12 = getelementptr inbounds nuw %"class.sat::probing", ptr %8, i32 0, i32 5
  %13 = zext i1 %10 to i8
  store i8 %13, ptr %12, align 4, !tbaa !52
  %14 = invoke noundef i32 @_ZNK21sat_simplifier_params13probing_limitEv(ptr noundef nonnull align 8 dereferenceable(16) %5)
          to label %15 unwind label %29

15:                                               ; preds = %11
  %16 = getelementptr inbounds nuw %"class.sat::probing", ptr %8, i32 0, i32 6
  store i32 %14, ptr %16, align 8, !tbaa !53
  %17 = invoke noundef zeroext i1 @_ZNK21sat_simplifier_params13probing_cacheEv(ptr noundef nonnull align 8 dereferenceable(16) %5)
          to label %18 unwind label %29

18:                                               ; preds = %15
  %19 = getelementptr inbounds nuw %"class.sat::probing", ptr %8, i32 0, i32 7
  %20 = zext i1 %17 to i8
  store i8 %20, ptr %19, align 4, !tbaa !54
  %21 = invoke noundef zeroext i1 @_ZNK21sat_simplifier_params14probing_binaryEv(ptr noundef nonnull align 8 dereferenceable(16) %5)
          to label %22 unwind label %29

22:                                               ; preds = %18
  %23 = getelementptr inbounds nuw %"class.sat::probing", ptr %8, i32 0, i32 8
  %24 = zext i1 %21 to i8
  store i8 %24, ptr %23, align 1, !tbaa !55
  %25 = invoke noundef i32 @_ZNK21sat_simplifier_params19probing_cache_limitEv(ptr noundef nonnull align 8 dereferenceable(16) %5)
          to label %26 unwind label %29

26:                                               ; preds = %22
  %27 = zext i32 %25 to i64
  %28 = getelementptr inbounds nuw %"class.sat::probing", ptr %8, i32 0, i32 9
  store i64 %27, ptr %28, align 8, !tbaa !56
  call void @_ZN21sat_simplifier_paramsD2Ev(ptr noundef nonnull align 8 dereferenceable(16) %5) #3
  call void @llvm.lifetime.end.p0(i64 16, ptr %5) #3
  ret void

29:                                               ; preds = %22, %18, %15, %11, %2
  %30 = landingpad { ptr, i32 }
          cleanup
  %31 = extractvalue { ptr, i32 } %30, 0
  store ptr %31, ptr %6, align 8
  %32 = extractvalue { ptr, i32 } %30, 1
  store i32 %32, ptr %7, align 4
  call void @_ZN21sat_simplifier_paramsD2Ev(ptr noundef nonnull align 8 dereferenceable(16) %5) #3
  call void @llvm.lifetime.end.p0(i64 16, ptr %5) #3
  br label %33

33:                                               ; preds = %29
  %34 = load ptr, ptr %6, align 8
  %35 = load i32, ptr %7, align 4
  %36 = insertvalue { ptr, i32 } poison, ptr %34, 0
  %37 = insertvalue { ptr, i32 } %36, i32 %35, 1
  resume { ptr, i32 } %37
}