; Function Attrs: mustprogress uwtable
define hidden void @_ZN3sat7probing11updt_paramsERK10params_ref(ptr noundef nonnull writeonly align 8 captures(none) dereferenceable(168) %0, ptr noundef nonnull align 8 dereferenceable(8) %1) local_unnamed_addr #3 align 2 personality ptr @__gxx_personality_v0 {
  %3 = alloca %struct.sat_simplifier_params, align 8
  call void @llvm.lifetime.start.p0(i64 16, ptr nonnull %3) #22
  store ptr %1, ptr %3, align 8, !tbaa !40
  %4 = getelementptr inbounds nuw i8, ptr %3, i64 8
  call void @_ZN7gparams10get_moduleEPKc(ptr dead_on_unwind nonnull writable sret(%class.params_ref) align 8 %4, ptr noundef nonnull @.str.13)
  %5 = load ptr, ptr %3, align 8, !tbaa !42
  %6 = invoke noundef zeroext i1 @_ZNK10params_ref8get_boolEPKcRKS_b(ptr noundef nonnull align 8 dereferenceable(8) %5, ptr noundef nonnull @.str.14, ptr noundef nonnull align 8 dereferenceable(8) %4, i1 noundef zeroext true)
          to label %_ZNK21sat_simplifier_params7probingEv.exit unwind label %24

_ZNK21sat_simplifier_params7probingEv.exit:       ; preds = %2
  %7 = getelementptr inbounds nuw i8, ptr %0, i64 44
  %8 = zext i1 %6 to i8
  store i8 %8, ptr %7, align 4, !tbaa !46
  %9 = load ptr, ptr %3, align 8, !tbaa !42
  %10 = invoke noundef i32 @_ZNK10params_ref8get_uintEPKcRKS_j(ptr noundef nonnull align 8 dereferenceable(8) %9, ptr noundef nonnull @.str.15, ptr noundef nonnull align 8 dereferenceable(8) %4, i32 noundef 5000000)
          to label %_ZNK21sat_simplifier_params13probing_limitEv.exit unwind label %24

_ZNK21sat_simplifier_params13probing_limitEv.exit: ; preds = %_ZNK21sat_simplifier_params7probingEv.exit
  %11 = getelementptr inbounds nuw i8, ptr %0, i64 48
  store i32 %10, ptr %11, align 8, !tbaa !47
  %12 = load ptr, ptr %3, align 8, !tbaa !42
  %13 = invoke noundef zeroext i1 @_ZNK10params_ref8get_boolEPKcRKS_b(ptr noundef nonnull align 8 dereferenceable(8) %12, ptr noundef nonnull @.str.16, ptr noundef nonnull align 8 dereferenceable(8) %4, i1 noundef zeroext true)
          to label %_ZNK21sat_simplifier_params13probing_cacheEv.exit unwind label %24

_ZNK21sat_simplifier_params13probing_cacheEv.exit: ; preds = %_ZNK21sat_simplifier_params13probing_limitEv.exit
  %14 = getelementptr inbounds nuw i8, ptr %0, i64 52
  %15 = zext i1 %13 to i8
  store i8 %15, ptr %14, align 4, !tbaa !48
  %16 = load ptr, ptr %3, align 8, !tbaa !42
  %17 = invoke noundef zeroext i1 @_ZNK10params_ref8get_boolEPKcRKS_b(ptr noundef nonnull align 8 dereferenceable(8) %16, ptr noundef nonnull @.str.17, ptr noundef nonnull align 8 dereferenceable(8) %4, i1 noundef zeroext true)
          to label %_ZNK21sat_simplifier_params14probing_binaryEv.exit unwind label %24

_ZNK21sat_simplifier_params14probing_binaryEv.exit: ; preds = %_ZNK21sat_simplifier_params13probing_cacheEv.exit
  %18 = getelementptr inbounds nuw i8, ptr %0, i64 53
  %19 = zext i1 %17 to i8
  store i8 %19, ptr %18, align 1, !tbaa !49
  %20 = load ptr, ptr %3, align 8, !tbaa !42
  %21 = invoke noundef i32 @_ZNK10params_ref8get_uintEPKcRKS_j(ptr noundef nonnull align 8 dereferenceable(8) %20, ptr noundef nonnull @.str.18, ptr noundef nonnull align 8 dereferenceable(8) %4, i32 noundef 1024)
          to label %_ZNK21sat_simplifier_params19probing_cache_limitEv.exit unwind label %24

_ZNK21sat_simplifier_params19probing_cache_limitEv.exit: ; preds = %_ZNK21sat_simplifier_params14probing_binaryEv.exit
  %22 = zext i32 %21 to i64
  %23 = getelementptr inbounds nuw i8, ptr %0, i64 56
  store i64 %22, ptr %23, align 8, !tbaa !50
  call void @_ZN10params_refD1Ev(ptr noundef nonnull align 8 dereferenceable(8) %4) #22
  call void @llvm.lifetime.end.p0(i64 16, ptr nonnull %3) #22
  ret void

24:                                               ; preds = %_ZNK21sat_simplifier_params14probing_binaryEv.exit, %_ZNK21sat_simplifier_params13probing_cacheEv.exit, %_ZNK21sat_simplifier_params13probing_limitEv.exit, %_ZNK21sat_simplifier_params7probingEv.exit, %2
  %25 = landingpad { ptr, i32 }
          cleanup
  call void @_ZN10params_refD1Ev(ptr noundef nonnull align 8 dereferenceable(8) %4) #22
  call void @llvm.lifetime.end.p0(i64 16, ptr nonnull %3) #22
  resume { ptr, i32 } %25
}